target datalayout = "e-m:e-p270:32:32-p271:32:32-p272:64:64-i64:64-i128:128-f80:128-n8:16:32:64-S128"
target triple = "x86_64-pc-linux-gnu"

@SDL_objects = internal global ptr null, align 8

; Function Attrs: nounwind uwtable
define hidden zeroext i1 @SDL_ObjectValid(ptr noundef %0, i32 noundef %1) #0 {
  %3 = alloca i1, align 1
  %4 = alloca ptr, align 8
  %5 = alloca i32, align 4
  %6 = alloca ptr, align 8
  %7 = alloca i32, align 4
  store ptr %0, ptr %4, align 8
  store i32 %1, ptr %5, align 4
  %8 = load ptr, ptr %4, align 8
  %9 = icmp ne ptr %8, null
  br i1 %9, label %11, label %10

10:                                               ; preds = %2
  store i1 false, ptr %3, align 1
  br label %23

11:                                               ; preds = %2
  call void @llvm.lifetime.start.p0(i64 8, ptr %6) #6
  %12 = load ptr, ptr @SDL_objects, align 8
  %13 = load ptr, ptr %4, align 8
  %14 = call zeroext i1 @SDL_FindInHashTable(ptr noundef %12, ptr noundef %13, ptr noundef %6)
  br i1 %14, label %16, label %15

15:                                               ; preds = %11
  store i1 false, ptr %3, align 1
  store i32 1, ptr %7, align 4
  br label %22

16:                                               ; preds = %11
  %17 = load ptr, ptr %6, align 8
  %18 = ptrtoint ptr %17 to i64
  %19 = trunc i64 %18 to i32
  %20 = load i32, ptr %5, align 4
  %21 = icmp eq i32 %19, %20
  store i1 %21, ptr %3, align 1
  store i32 1, ptr %7, align 4
  br label %22

22:                                               ; preds = %16, %15
  call void @llvm.lifetime.end.p0(i64 8, ptr %6) #6
  br label %23

23:                                               ; preds = %22, %10
  %24 = load i1, ptr %3, align 1
  ret i1 %24
}