; Function Attrs: nounwind uwtable
define hidden zeroext i1 @SDL_ObjectValid(ptr noundef %0, i32 noundef %1) local_unnamed_addr #4 {
  %3 = alloca ptr, align 8
  %.not = icmp eq ptr %0, null
  br i1 %.not, label %11, label %4

4:                                                ; preds = %2
  call void @llvm.lifetime.start.p0(i64 8, ptr nonnull %3) #10
  %5 = load ptr, ptr @SDL_objects, align 8
  %6 = call zeroext i1 @SDL_FindInHashTable(ptr noundef %5, ptr noundef nonnull %0, ptr noundef nonnull %3) #10
  %7 = load ptr, ptr %3, align 8
  %8 = ptrtoint ptr %7 to i64
  %9 = trunc i64 %8 to i32
  %10 = icmp eq i32 %1, %9
  %.1 = select i1 %6, i1 %10, i1 false
  call void @llvm.lifetime.end.p0(i64 8, ptr nonnull %3) #10
  br label %11

11:                                               ; preds = %2, %4
  %.0 = phi i1 [ %.1, %4 ], [ false, %2 ]
  ret i1 %.0
}